target datalayout = "e-m:e-p270:32:32-p271:32:32-p272:64:64-i64:64-i128:128-f80:128-n8:16:32:64-S128"
target triple = "x86_64-pc-linux-gnu"

@auth_hash_len = internal constant [6 x i32] [i32 16, i32 20, i32 28, i32 32, i32 48, i32 64], align 16
@auth_hash_algo = internal constant [6 x i32] [i32 1, i32 2, i32 11, i32 8, i32 9, i32 10], align 16

; Function Attrs: nounwind uwtable
define internal void @snmp_usm_password_to_key(i32 noundef %0, ptr noundef %1, i32 noundef %2, ptr noundef %3, i32 noundef %4, ptr noundef %5) #0 {
  %7 = alloca i32, align 4
  %8 = alloca ptr, align 8
  %9 = alloca i32, align 4
  %10 = alloca ptr, align 8
  %11 = alloca i32, align 4
  %12 = alloca ptr, align 8
  %13 = alloca ptr, align 8
  %14 = alloca ptr, align 8
  %15 = alloca [64 x i8], align 16
  %16 = alloca i32, align 4
  %17 = alloca i32, align 4
  %18 = alloca i32, align 4
  %19 = alloca i32, align 4
  store i32 %0, ptr %7, align 4
  store ptr %1, ptr %8, align 8
  store i32 %2, ptr %9, align 4
  store ptr %3, ptr %10, align 8
  store i32 %4, ptr %11, align 4
  store ptr %5, ptr %12, align 8
  store i32 0, ptr %16, align 4
  store i32 0, ptr %17, align 4
  %20 = load i32, ptr %7, align 4
  %21 = zext i32 %20 to i64
  %22 = getelementptr [6 x i32], ptr @auth_hash_algo, i64 0, i64 %21
  %23 = load i32, ptr %22, align 4
  %24 = call i32 @gcry_md_open(ptr noundef %13, i32 noundef %23, i32 noundef 0)
  %25 = icmp ne i32 %24, 0
  br i1 %25, label %26, label %27

26:                                               ; preds = %6
  br label %98

27:                                               ; preds = %6
  %28 = load i32, ptr %7, align 4
  %29 = zext i32 %28 to i64
  %30 = getelementptr [6 x i32], ptr @auth_hash_len, i64 0, i64 %29
  %31 = load i32, ptr %30, align 4
  store i32 %31, ptr %19, align 4
  br label %32

32:                                               ; preds = %60, %27
  %33 = load i32, ptr %17, align 4
  %34 = icmp ult i32 %33, 1048576
  br i1 %34, label %35, label %65

35:                                               ; preds = %32
  %36 = getelementptr inbounds [64 x i8], ptr %15, i64 0, i64 0
  store ptr %36, ptr %14, align 8
  %37 = load i32, ptr %9, align 4
  %38 = icmp ne i32 %37, 0
  br i1 %38, label %39, label %58

39:                                               ; preds = %35
  store i32 0, ptr %18, align 4
  br label %40

40:                                               ; preds = %54, %39
  %41 = load i32, ptr %18, align 4
  %42 = icmp ult i32 %41, 64
  br i1 %42, label %43, label %57

43:                                               ; preds = %40
  %44 = load ptr, ptr %8, align 8
  %45 = load i32, ptr %16, align 4
  %46 = add i32 %45, 1
  store i32 %46, ptr %16, align 4
  %47 = load i32, ptr %9, align 4
  %48 = urem i32 %45, %47
  %49 = zext i32 %48 to i64
  %50 = getelementptr i8, ptr %44, i64 %49
  %51 = load i8, ptr %50, align 1
  %52 = load ptr, ptr %14, align 8
  %53 = getelementptr i8, ptr %52, i32 1
  store ptr %53, ptr %14, align 8
  store i8 %51, ptr %52, align 1
  br label %54

54:                                               ; preds = %43
  %55 = load i32, ptr %18, align 4
  %56 = add i32 %55, 1
  store i32 %56, ptr %18, align 4
  br label %40, !llvm.loop !22

57:                                               ; preds = %40
  br label %60

58:                                               ; preds = %35
  %59 = load ptr, ptr %14, align 8
  store i8 0, ptr %59, align 1
  br label %60

60:                                               ; preds = %58, %57
  %61 = load ptr, ptr %13, align 8
  %62 = getelementptr inbounds [64 x i8], ptr %15, i64 0, i64 0
  call void @gcry_md_write(ptr noundef %61, ptr noundef %62, i64 noundef 64)
  %63 = load i32, ptr %17, align 4
  %64 = add i32 %63, 64
  store i32 %64, ptr %17, align 4
  br label %32, !llvm.loop !23

65:                                               ; preds = %32
  %66 = load ptr, ptr %12, align 8
  %67 = load ptr, ptr %13, align 8
  %68 = call ptr @gcry_md_read(ptr noundef %67, i32 noundef 0)
  %69 = load i32, ptr %19, align 4
  %70 = zext i32 %69 to i64
  call void @llvm.memcpy.p0.p0.i64(ptr align 1 %66, ptr align 1 %68, i64 %70, i1 false)
  %71 = load ptr, ptr %13, align 8
  call void @gcry_md_close(ptr noundef %71)
  %72 = load i32, ptr %7, align 4
  %73 = zext i32 %72 to i64
  %74 = getelementptr [6 x i32], ptr @auth_hash_algo, i64 0, i64 %73
  %75 = load i32, ptr %74, align 4
  %76 = call i32 @gcry_md_open(ptr noundef %13, i32 noundef %75, i32 noundef 0)
  %77 = icmp ne i32 %76, 0
  br i1 %77, label %78, label %79

78:                                               ; preds = %65
  br label %98

79:                                               ; preds = %65
  %80 = load ptr, ptr %13, align 8
  %81 = load ptr, ptr %12, align 8
  %82 = load i32, ptr %19, align 4
  %83 = zext i32 %82 to i64
  call void @gcry_md_write(ptr noundef %80, ptr noundef %81, i64 noundef %83)
  %84 = load ptr, ptr %13, align 8
  %85 = load ptr, ptr %10, align 8
  %86 = load i32, ptr %11, align 4
  %87 = zext i32 %86 to i64
  call void @gcry_md_write(ptr noundef %84, ptr noundef %85, i64 noundef %87)
  %88 = load ptr, ptr %13, align 8
  %89 = load ptr, ptr %12, align 8
  %90 = load i32, ptr %19, align 4
  %91 = zext i32 %90 to i64
  call void @gcry_md_write(ptr noundef %88, ptr noundef %89, i64 noundef %91)
  %92 = load ptr, ptr %12, align 8
  %93 = load ptr, ptr %13, align 8
  %94 = call ptr @gcry_md_read(ptr noundef %93, i32 noundef 0)
  %95 = load i32, ptr %19, align 4
  %96 = zext i32 %95 to i64
  call void @llvm.memcpy.p0.p0.i64(ptr align 1 %92, ptr align 1 %94, i64 %96, i1 false)
  %97 = load ptr, ptr %13, align 8
  call void @gcry_md_close(ptr noundef %97)
  br label %98

98:                                               ; preds = %79, %78, %26
  ret void
}