; Function Attrs: nounwind uwtable
define internal fastcc void @snmp_usm_password_to_key(i32 noundef %0, ptr noundef readonly captures(none) %1, i32 noundef %2, ptr noundef %3, i32 noundef %4, ptr noundef %5) unnamed_addr #0 {
  %7 = alloca ptr, align 8
  %8 = alloca [64 x i8], align 16
  %9 = zext i32 %0 to i64
  %10 = getelementptr [6 x i32], ptr @auth_hash_algo, i64 0, i64 %9
  %11 = load i32, ptr %10, align 4
  %12 = call i32 @gcry_md_open(ptr noundef nonnull %7, i32 noundef %11, i32 noundef 0) #11
  %.not = icmp eq i32 %12, 0
  br i1 %.not, label %13, label %42

13:                                               ; preds = %6
  %14 = getelementptr [6 x i32], ptr @auth_hash_len, i64 0, i64 %9
  %15 = load i32, ptr %14, align 4
  %.not27 = icmp eq i32 %2, 0
  br i1 %.not27, label %.split.us, label %.preheader.preheader

.preheader.preheader:                             ; preds = %13
  %scevgep = getelementptr inbounds nuw i8, ptr %8, i64 63
  br label %.preheader

.split.us:                                        ; preds = %13, %.split.us
  %.02332.us = phi i32 [ %17, %.split.us ], [ 0, %13 ]
  store i8 0, ptr %8, align 16
  %16 = load ptr, ptr %7, align 8
  call void @gcry_md_write(ptr noundef %16, ptr noundef nonnull %8, i64 noundef 64) #11
  %17 = add nuw nsw i32 %.02332.us, 64
  %18 = icmp samesign ult i32 %.02332.us, 1048512
  br i1 %18, label %.split.us, label %.split34.us, !llvm.loop !21

.preheader:                                       ; preds = %.preheader.preheader, %.loopexit
  %.02332 = phi i32 [ %27, %.loopexit ], [ 0, %.preheader.preheader ]
  %.02431 = phi i32 [ %20, %.loopexit ], [ 0, %.preheader.preheader ]
  br label %19

19:                                               ; preds = %.preheader, %19
  %.030 = phi ptr [ %8, %.preheader ], [ %25, %19 ]
  %.128 = phi i32 [ %.02431, %.preheader ], [ %20, %19 ]
  %20 = add i32 %.128, 1
  %21 = urem i32 %.128, %2
  %22 = zext i32 %21 to i64
  %23 = getelementptr i8, ptr %1, i64 %22
  %24 = load i8, ptr %23, align 1
  %25 = getelementptr i8, ptr %.030, i64 1
  store i8 %24, ptr %.030, align 1
  %exitcond.not = icmp eq ptr %.030, %scevgep
  br i1 %exitcond.not, label %.loopexit, label %19, !llvm.loop !22

.loopexit:                                        ; preds = %19
  %26 = load ptr, ptr %7, align 8
  call void @gcry_md_write(ptr noundef %26, ptr noundef nonnull %8, i64 noundef 64) #11
  %27 = add nuw nsw i32 %.02332, 64
  %28 = icmp samesign ult i32 %.02332, 1048512
  br i1 %28, label %.preheader, label %.split34.us, !llvm.loop !21

.split34.us:                                      ; preds = %.loopexit, %.split.us
  %29 = load ptr, ptr %7, align 8
  %30 = call ptr @gcry_md_read(ptr noundef %29, i32 noundef 0) #11
  %31 = zext i32 %15 to i64
  call void @llvm.memcpy.p0.p0.i64(ptr align 1 %5, ptr align 1 %30, i64 %31, i1 false)
  %32 = load ptr, ptr %7, align 8
  call void @gcry_md_close(ptr noundef %32) #11
  %33 = call i32 @gcry_md_open(ptr noundef nonnull %7, i32 noundef %11, i32 noundef 0) #11
  %.not26 = icmp eq i32 %33, 0
  br i1 %.not26, label %34, label %42

34:                                               ; preds = %.split34.us
  %35 = load ptr, ptr %7, align 8
  call void @gcry_md_write(ptr noundef %35, ptr noundef %5, i64 noundef %31) #11
  %36 = load ptr, ptr %7, align 8
  %37 = zext i32 %4 to i64
  call void @gcry_md_write(ptr noundef %36, ptr noundef %3, i64 noundef %37) #11
  %38 = load ptr, ptr %7, align 8
  call void @gcry_md_write(ptr noundef %38, ptr noundef %5, i64 noundef %31) #11
  %39 = load ptr, ptr %7, align 8
  %40 = call ptr @gcry_md_read(ptr noundef %39, i32 noundef 0) #11
  call void @llvm.memcpy.p0.p0.i64(ptr align 1 %5, ptr align 1 %40, i64 %31, i1 false)
  %41 = load ptr, ptr %7, align 8
  call void @gcry_md_close(ptr noundef %41) #11
  br label %42

42:                                               ; preds = %.split34.us, %6, %34
  ret void
}